target datalayout = "e-m:e-p270:32:32-p271:32:32-p272:64:64-i64:64-i128:128-f80:128-n8:16:32:64-S128"
target triple = "x86_64-unknown-linux-gnu"

%"class.icu_75::UTF8CollationIterator" = type { %"class.icu_75::CollationIterator.base", ptr, i32, i32 }
%"class.icu_75::CollationIterator.base" = type <{ %"class.icu_75::UObject", ptr, ptr, %"class.icu_75::CollationIterator::CEBuffer", i32, [4 x i8], ptr, i32, i8 }>
%"class.icu_75::UObject" = type { ptr }
%"class.icu_75::CollationIterator::CEBuffer" = type { i32, %"class.icu_75::MaybeStackArray.0" }
%"class.icu_75::MaybeStackArray.0" = type { ptr, i32, i8, [40 x i64] }
%"class.icu_75::FCDUTF8CollationIterator" = type { %"class.icu_75::UTF8CollationIterator", i32, i32, i32, ptr, %"class.icu_75::UnicodeString" }
%"class.icu_75::UnicodeString" = type { %"class.icu_75::Replaceable", %"union.icu_75::UnicodeString::StackBufferOrFields" }
%"class.icu_75::Replaceable" = type { %"class.icu_75::UObject" }
%"union.icu_75::UnicodeString::StackBufferOrFields" = type { %struct.anon.1, [32 x i8] }
%struct.anon.1 = type { i16, i32, i32, ptr }

; Function Attrs: mustprogress nounwind uwtable
define internal noundef signext i8 @_ZL9U_SUCCESS10UErrorCode(i32 noundef %code) #0 {
entry:
  %code.addr = alloca i32, align 4
  store i32 %code, ptr %code.addr, align 4
  %0 = load i32, ptr %code.addr, align 4
  %cmp = icmp sle i32 %0, 0
  %conv = zext i1 %cmp to i8
  ret i8 %conv
}

; Function Attrs: mustprogress uwtable
define noundef signext i8 @_ZN6icu_7524FCDUTF8CollationIterator9normalizeERKNS_13UnicodeStringER10UErrorCode(ptr noundef nonnull align 8 dereferenceable(496) %this, ptr noundef nonnull align 8 dereferenceable(64) %s, ptr noundef nonnull align 4 dereferenceable(4) %errorCode) #1 align 2 {
entry:
  %this.addr = alloca ptr, align 8
  %s.addr = alloca ptr, align 8
  %errorCode.addr = alloca ptr, align 8
  store ptr %this, ptr %this.addr, align 8
  store ptr %s, ptr %s.addr, align 8
  store ptr %errorCode, ptr %errorCode.addr, align 8
  %this1 = load ptr, ptr %this.addr, align 8
  %nfcImpl = getelementptr inbounds %"class.icu_75::FCDUTF8CollationIterator", ptr %this1, i32 0, i32 4
  %0 = load ptr, ptr %nfcImpl, align 8
  %1 = load ptr, ptr %s.addr, align 8
  %normalized = getelementptr inbounds %"class.icu_75::FCDUTF8CollationIterator", ptr %this1, i32 0, i32 5
  %2 = load ptr, ptr %errorCode.addr, align 8
  %call = call noundef nonnull align 8 dereferenceable(64) ptr @_ZNK6icu_7515Normalizer2Impl9decomposeERKNS_13UnicodeStringERS1_R10UErrorCode(ptr noundef nonnull align 8 dereferenceable(80) %0, ptr noundef nonnull align 8 dereferenceable(64) %1, ptr noundef nonnull align 8 dereferenceable(64) %normalized, ptr noundef nonnull align 4 dereferenceable(4) %2)
  %3 = load ptr, ptr %errorCode.addr, align 8
  %4 = load i32, ptr %3, align 4
  %call2 = call noundef signext i8 @_ZL9U_SUCCESS10UErrorCode(i32 noundef %4)
  ret i8 %call2
}