; Function Attrs: mustprogress uwtable
define noundef signext i8 @_ZN6icu_7524FCDUTF8CollationIterator9normalizeERKNS_13UnicodeStringER10UErrorCode(ptr noundef nonnull align 8 dereferenceable(496) %this, ptr noundef nonnull align 8 dereferenceable(64) %s, ptr noundef nonnull align 4 dereferenceable(4) %errorCode) local_unnamed_addr #1 align 2 {
entry:
  %nfcImpl = getelementptr inbounds i8, ptr %this, i64 424
  %0 = load ptr, ptr %nfcImpl, align 8
  %normalized = getelementptr inbounds i8, ptr %this, i64 432
  %call = tail call noundef nonnull align 8 dereferenceable(64) ptr @_ZNK6icu_7515Normalizer2Impl9decomposeERKNS_13UnicodeStringERS1_R10UErrorCode(ptr noundef nonnull align 8 dereferenceable(80) %0, ptr noundef nonnull align 8 dereferenceable(64) %s, ptr noundef nonnull align 8 dereferenceable(64) %normalized, ptr noundef nonnull align 4 dereferenceable(4) %errorCode)
  %1 = load i32, ptr %errorCode, align 4
  %cmp.i = icmp slt i32 %1, 1
  %conv.i = zext i1 %cmp.i to i8
  ret i8 %conv.i
}